#include <math.h>
#include <stdio.h>
#include <stdlib.h>
#include <string.h>
#include <iostream>
using namespace std;

int num;
void divide(int n,int n2)
{
	int i,m1;
	m1=(int)sqrt((double)n);
	for(i=n2;i<=m1;i++)
	{if(n%i==0)
	{num++;divide(n/i,i);}//?????????????????????????????
	}
}
int main()
{
	int n,i,m;
	cin>>n;
	for(i=0;i<n;i++)
	{
		num=1;
		cin>>m;
		
		divide(m,2);
		cout<<num<<endl;
	}
	return 0;
}